; Function Attrs: mustprogress uwtable
define hidden void @_ZN3sls12arith_plugin11init_backupEv(ptr noundef nonnull align 8 captures(none) dereferenceable(64) %0) local_unnamed_addr #3 align 2 {
  %2 = getelementptr inbounds nuw i8, ptr %0, i64 32
  %3 = load ptr, ptr %2, align 8, !tbaa !48
  %.not.i = icmp eq ptr %3, null
  br i1 %.not.i, label %_ZN10scoped_ptrIN3sls10arith_baseI13checked_int64ILb1EEEEEaSEPS4_.exit, label %4

4:                                                ; preds = %1
  %5 = load ptr, ptr %3, align 8, !tbaa !3
  %6 = load ptr, ptr %5, align 8
  tail call void %6(ptr noundef nonnull align 8 dereferenceable(672) %3) #11
  tail call void @_ZN6memory10deallocateEPv(ptr noundef nonnull %3)
  store ptr null, ptr %2, align 8, !tbaa !48
  br label %_ZN10scoped_ptrIN3sls10arith_baseI13checked_int64ILb1EEEEEaSEPS4_.exit

_ZN10scoped_ptrIN3sls10arith_baseI13checked_int64ILb1EEEEEaSEPS4_.exit: ; preds = %1, %4
  ret void
}